(dp1
Voper
p2
(lp3
I1
asVoil
p4
(lp5
I1
asVsignificantli
p6
(lp7
I1
asVseek
p8
(lp9
I1
asVunit
p10
(lp11
I1
asVsaid
p12
(lp13
I1
asVsafeti
p14
(lp15
I1
asVgulf
p16
(lp17
I1
asVwarship
p18
(lp19
I1
asVreuter
p20
(lp21
I1
asVstate
p22
(lp23
I1
asVcountermeasur
p24
(lp25
I1
asVfutur
p26
(lp27
I1
asVescort
p28
(lp29
I1
asVweinberg
p30
(lp31
I1
asViran
p32
(lp33
I1
asVcontribut
p34
(lp35
I1
asVforc
p36
(lp37
I1
asVu.s.
p38
(lp39
I1
asVask
p40
(lp41
I1
asVescal
p42
(lp43
I1
asVconfront
p44
(lp45
I1
asVprepar
p46
(lp47
I1
asVstronger
p48
(lp49
I1
asVnavy'
p50
(lp51
I1
asVmilitari
p52
(lp53
I1
asVaction
p54
(lp55
I1
asVmeet
p56
(lp57
I1
asVtanker
p58
(lp59
I1
asVremov
p60
(lp61
I1
as.