(dp1
Vmexican
p2
(lp3
I9
asVexchang
p4
(lp5
I9
asVemot
p6
(lp7
I9
asVsomoza
p8
(lp9
I9
asV16.51
p10
(lp11
I9
asVtotal
p12
(lp13
I9
asVspeak
p14
(lp15
I9
asVindex
p16
(lp17
I9
asVsaid
p18
(lp19
I9
asVpct
p20
(lp21
I9
asVeconomi
p22
(lp23
I9
asVnew
p24
(lp25
I9
asVstock
p26
(lp27
I9
asVmonday
p28
(lp29
I9
asVreflect
p30
(lp31
I9
asVstockmarket
p32
(lp33
I9
asVyork
p34
(lp35
I9
asVfall
p36
(lp37
I9
asVreaction
p38
(lp39
I9
asVdrop
p40
(lp41
I9
asVmanuel
p42
(lp43
I9
asVcrisi
p44
(lp45
I9
as.