(dp1
Videntifi
p2
(lp3
I4
asVprimarili
p4
(lp5
I4
asVdeclin
p6
(lp7
I4
asVoffici
p8
(lp9
I4
asV7.3
p10
(lp11
I4
asVfollow
p12
(lp13
I4
asVpct
p14
(lp15
I4
asVmorn
p16
(lp17
I4
asVfactor
p18
(lp19
I4
asVnew
p20
(lp21
I4
asVtold
p22
(lp23
I4
asVstock
p24
(lp25
I4
asVprice
p26
(lp27
I4
asVyork
p28
(lp29
I4
asVfall
p30
(lp31
I4
asVreport
p32
(lp33
I4
asVtokyo
p34
(lp35
I4
asVdrop
p36
(lp37
I4
asVovernight
p38
(lp39
I4
asVcaus
p40
(lp41
I4
asV22.5
p42
(lp43
I4
asVpsycholog
p44
(lp45
I4
as.