(dp1
Vdanger
p2
(lp3
I7
asVwall
p4
(lp5
I7
asVpercentag
p6
(lp7
I7
asVstreet
p8
(lp9
I7
asVmarket
p10
(lp11
I7
asVsaid
p12
(lp13
I7
asVpoint
p14
(lp15
I7
asVsend
p16
(lp17
I7
asVsinc
p18
(lp19
I7
asV508
p20
(lp21
I7
asVbiggest
p22
(lp23
I7
asVdifficult
p24
(lp25
I7
asVu.s.
p26
(lp27
I7
asVokiyama
p28
(lp29
I7
asVconsid
p30
(lp31
I7
asV1914
p32
(lp33
I7
asVinvest
p34
(lp35
I7
asVdrop
p36
(lp37
I7
asVkatsuhiko
p38
(lp39
I7
asV1,738
p40
(lp41
I7
asVstock
p42
(lp43
I7
asVbond
p44
(lp45
I7
as.