(dp1
Videntifi
p2
(lp3
I3
asVoffici
p4
(lp5
I3
asVqualiti
p6
(lp7
I3
asVcontinu
p8
(lp9
I3
asVrest
p10
(lp11
I3
asVbritain
p12
(lp13
I3
asVsaid
p14
(lp15
I3
asVdescrib
p16
(lp17
I3
asVwould
p18
(lp19
I3
asVagricultur
p20
(lp21
I3
asVpct
p22
(lp23
I3
asVspokesman
p24
(lp25
I3
asVnetherland
p26
(lp27
I3
asVgermani
p28
(lp29
I3
asVu.s.
p30
(lp31
I3
asVexpand
p32
(lp33
I3
asV16
p34
(lp35
I3
asVwish
p36
(lp37
I3
asVindonesia
p38
(lp39
I3
asVsale
p40
(lp41
I3
asVministri
p42
(lp43
I3
asVproblem
p44
(lp45
I3
as.