(dp1
Vqualiti
p2
(lp3
I3
asVone
p4
(lp5
I3
asVcocoa
p6
(lp7
I3
asVmalaysia
p8
(lp9
I3
asVindistinguish
p10
(lp11
I3
asVsaid
p12
(lp13
I3
asVtechniqu
p14
(lp15
I3
asVwest
p16
(lp17
I3
asVvirtual
p18
(lp19
I3
asVtreat
p20
(lp21
I3
asVway
p22
(lp23
I3
asVferment
p24
(lp25
I3
asVmain
p26
(lp27
I3
asVbeliev
p28
(lp29
I3
asVuneconom
p30
(lp31
I3
asVharvest
p32
(lp33
I3
asVpossibl
p34
(lp35
I3
asVtrader
p36
(lp37
I3
asVmalaysian
p38
(lp39
I3
asVafrican
p40
(lp41
I3
asVoutput
p42
(lp43
I3
asVproblem
p44
(lp45
I3
as.