(dp1
Vsector
p2
(lp3
I9
asVmexican
p4
(lp5
I9
asVmodern
p6
(lp7
I9
asVhigh
p8
(lp9
I9
asVsay
p10
(lp11
I9
asVexport
p12
(lp13
I9
asVreserv
p14
(lp15
I9
asVmarket
p16
(lp17
I9
asVsaid
p18
(lp19
I9
asVwould
p20
(lp21
I9
asVeconomi
p22
(lp23
I9
asVnon-petroleum
p24
(lp25
I9
asVu.s.
p26
(lp27
I9
asVpromot
p28
(lp29
I9
asVgovern
p30
(lp31
I9
asVeffort
p32
(lp33
I9
asVstabil
p34
(lp35
I9
asVtrader
p36
(lp37
I9
asVforeign
p38
(lp39
I9
asVthought
p40
(lp41
I9
asVrecord
p42
(lp43
I9
asVindustri
p44
(lp45
I9
as.