(dp1
Vsuppli
p2
(lp3
I1
asVmanufactur
p4
(lp5
I1
asVuse
p6
(lp7
I1
asVsaid
p8
(lp9
I1
asV)
(lp10
I1
asV(
(lp11
I1
asVnec
p12
(lp13
I1
asVspokesman
p14
(lp15
I1
asVnipn.t
p16
(lp17
I1
asVsemiconducteur
p18
(lp19
I1
asVmicrochip
p20
(lp21
I1
asV16-bit
p22
(lp23
I1
asV>
(lp24
I1
asVfranc
p25
(lp26
I1
asVjoint
p27
(lp28
I1
asVcorp
p29
(lp30
I1
asVtechnolog
p31
(lp32
I1
asVmh
p33
(lp34
I1
asV<
(lp35
I1
asVmatra-harri
p36
(lp37
I1
asVsa
p38
(lp39
I1
asVmicrocomput
p40
(lp41
I1
as.