(dp1
Vco
p2
(lp3
I7
asVakira
p4
(lp5
I7
asVshare
p6
(lp7
I7
asVintern
p8
(lp9
I7
asVdeputi
p10
(lp11
I7
asVdepart
p12
(lp13
I7
asVtrust
p14
(lp15
I7
asVsaid
p16
(lp17
I7
asVwould
p18
(lp19
I7
asValso
p20
(lp21
I7
asVdollar
p22
(lp23
I7
asVu.s.
p24
(lp25
I7
asVfund
p26
(lp27
I7
asVlower
p28
(lp29
I7
asVnomura
p30
(lp31
I7
asVinvest
p32
(lp33
I7
asVsignific
p34
(lp35
I7
asVkawakami
p36
(lp37
I7
asVunstabl
p38
(lp39
I7
asVwithdraw
p40
(lp41
I7
asVmanag
p42
(lp43
I7
asVltd'
p44
(lp45
I7
as.