(dp1
Vmajor
p2
(lp3
I7
asVindividu
p4
(lp5
I7
asVeconom
p6
(lp7
I7
asVrate
p8
(lp9
I7
asVfollow
p10
(lp11
I7
asVhuge
p12
(lp13
I7
asVsaid
p14
(lp15
I7
asVinstitut
p16
(lp17
I7
asVpictur
p18
(lp19
I7
asVdue
p20
(lp21
I7
asVestim
p22
(lp23
I7
asVinterest
p24
(lp25
I7
asVstock
p26
(lp27
I7
asVgloomi
p28
(lp29
I7
asVu.s.
p30
(lp31
I7
asVrise
p32
(lp33
I7
asVeffect
p34
(lp35
I7
asVinvestor
p36
(lp37
I7
asVloss
p38
(lp39
I7
asVjapanes
p40
(lp41
I7
asVrule
p42
(lp43
I7
asVbond
p44
(lp45
I7
as.