(dp1
Vtree
p2
(lp3
I6
asVpackag
p4
(lp5
I5
asVunit
p6
(lp7
I5
asVhuge
p8
(lp9
I6
asV830
p10
(lp11
I5
asVchristma
p12
(lp13
I6
asVgulf
p14
(lp15
I6
asVplatform
p16
(lp17
I6
asVreuter
p18
(lp19
I5
asVlit
p20
(lp21
I6
asVdlr
p22
(lp23
I5
asVworth
p24
(lp25
I5
asVcomplet
p26
(lp27
I5
asVoil
p28
(lp29
I6
asVbeacon
p30
(lp31
I6
asVlike
p32
(lp33
I6
asVcanadian
p34
(lp35
I5
asV--
p36
(lp37
I6
asVrefinanc
p38
(lp39
I5
asVmln
p40
(lp41
I5
asVdot
p42
(lp43
I6
asVusual
p44
(lp45
I6
as.