(dp1
Voffici
p2
(lp3
I3
asVtonn
p4
(lp5
I3
asVcocoa
p6
(lp7
I3
asVintern
p8
(lp9
I3
asV155,000
p10
(lp11
I3
asVexpect
p12
(lp13
I3
asVcalendar
p14
(lp15
I3
asVtotal
p16
(lp17
I3
asV1986
p18
(lp19
I3
asV1987
p20
(lp21
I3
asVsaid
p22
(lp23
I3
asV)
(lp24
I3
asV(
(lp25
I3
asVicco
p26
(lp27
I3
asV150,000
p28
(lp29
I3
asVproduct
p30
(lp31
I3
asV131,000
p32
(lp33
I3
asVexpand
p34
(lp35
I3
asVorgan
p36
(lp37
I3
asVmalaysian
p38
(lp39
I3
asVoutsid
p40
(lp41
I3
asVoutput
p42
(lp43
I3
as.