(dp1
Vjapanes
p2
(lp3
I7
asVblown
p4
(lp5
I6
asVwall
p6
(lp7
I7
asVmove
p8
(lp9
I7
asVdollar
p10
(lp11
I7
asVone
p12
(lp13
I6
asVstreet
p14
(lp15
I7
asVwarship
p16
(lp17
I6
asVgoe
p18
(lp19
I7
asVreuter
p20
(lp21
I6
asVu.
p22
(lp23
I6
asVway
p24
(lp25
I7
asVfinal
p26
(lp27
I7
asVoffshor
p28
(lp29
I6
asVmonday
p30
(lp31
I6
asVwater
p32
(lp33
I6
asVrostam
p34
(lp35
I6
asVastrid
p36
(lp37
I6
asVinvest
p38
(lp39
I7
asVsit
p40
(lp41
I6
asVnight
p42
(lp43
I6
asVoilfield
p44
(lp45
I6
as.