(dp1
Vdollar
p2
(lp3
I7
asVsay
p4
(lp5
I7
asValreadi
p6
(lp7
I7
asVjapan
p8
(lp9
I7
asVhappen
p10
(lp11
I7
asVsecur
p12
(lp13
I7
asVequiti
p14
(lp15
I7
asVdefinit
p16
(lp17
I7
asVway
p18
(lp19
I7
asVsold
p20
(lp21
I7
asVu.s.
p22
(lp23
I7
asVyesterday
p24
(lp25
I7
asVfall
p26
(lp27
I7
asVinvestor
p28
(lp29
I7
asVtri
p30
(lp31
I7
asVdomin
p32
(lp33
I7
asVseriou
p34
(lp35
I7
asVjapanes
p36
(lp37
I7
asVforeign
p38
(lp39
I7
asVinvest
p40
(lp41
I7
asVsteepli
p42
(lp43
I7
asVmanag
p44
(lp45
I7
as.