(dp1
Vdollar
p2
(lp3
I7
asVrate
p4
(lp5
I7
asVdifferenti
p6
(lp7
I7
asVsaid
p8
(lp9
I7
asVjapanes
p10
(lp11
I7
asVjapan-u.s.
p12
(lp13
I7
asVkawakami
p14
(lp15
I7
asVcurrent
p16
(lp17
I7
asVenough
p18
(lp19
I7
asVinterest
p20
(lp21
I7
asVnoth
p22
(lp23
I7
asVstabil
p24
(lp25
I7
asVu.s.
p26
(lp27
I7
asVaffect
p28
(lp29
I7
asVwide
p30
(lp31
I7
asVlook
p32
(lp33
I7
asVinvest
p34
(lp35
I7
asVcould
p36
(lp37
I7
asVbenefit
p38
(lp39
I7
asVabsenc
p40
(lp41
I7
asVbond
p42
(lp43
I7
asVmean
p44
(lp45
I7
as.