(dp1
Vmexican
p2
(lp3
I9
asVexchang
p4
(lp5
I9
asV629
p6
(lp7
I9
asVshare
p8
(lp9
I9
asVsomoza
p10
(lp11
I9
asVyear
p12
(lp13
I9
asVopen
p14
(lp15
I9
asVmarket
p16
(lp17
I9
asVsell
p18
(lp19
I9
asVsaid
p20
(lp21
I9
asVend
p22
(lp23
I9
asVrisen
p24
(lp25
I9
asVpct
p26
(lp27
I9
asVflurri
p28
(lp29
I9
asVmonday
p30
(lp31
I9
asVstockmarket
p32
(lp33
I9
asVvolum
p34
(lp35
I9
asV15.3
p36
(lp37
I9
asVlight
p38
(lp39
I9
asVmln
p40
(lp41
I9
asVcaus
p42
(lp43
I9
asVseptemb
p44
(lp45
I9
as.