(dp1
Vhelp
p2
(lp3
I3
asVcocoa
p4
(lp5
I3
asVmalaysia
p6
(lp7
I3
asVlondon
p8
(lp9
I3
asVasian
p10
(lp11
I3
asVdepress
p12
(lp13
I3
asVsaid
p14
(lp15
I3
asVpalat
p16
(lp17
I3
asV)
(lp18
I3
asV(
(lp19
I3
asVnew
p20
(lp21
I3
asVprice
p22
(lp23
I3
asVbean
p24
(lp25
I3
asVwestern
p26
(lp27
I3
asVconsid
p28
(lp29
I3
asVpng
p30
(lp31
I3
asVunsuit
p32
(lp33
I3
asVunwant
p34
(lp35
I3
asVtrader
p36
(lp37
I3
asVindonesia
p38
(lp39
I3
asVpapua
p40
(lp41
I3
asVguinea
p42
(lp43
I3
as.