(dp1
Vproduct
p2
(lp3
I3
asVone
p4
(lp5
I3
asVcocoa
p6
(lp7
I3
asVringgit
p8
(lp9
I3
asV250
p10
(lp11
I3
asVwould
p12
(lp13
I3
asV)
(lp14
I3
asVanoth
p15
(lp16
I3
asVmake
p17
(lp18
I3
asVper
p19
(lp20
I3
asVlumpur
p21
(lp22
I3
asVaccord
p23
(lp24
I3
asVprice
p25
(lp26
I3
asVfall
p27
(lp28
I3
asVworld
p29
(lp30
I3
asVtonn
p31
(lp32
I3
asVstg
p33
(lp34
I3
asVtrader
p35
(lp36
I3
asV1,000
p37
(lp38
I3
asVkuala
p39
(lp40
I3
asV(
(lp41
I3
asVcountri
p42
(lp43
I3
as.