(dp1
Vco
p2
(lp3
I7
asVwall
p4
(lp5
I7
asVdeputi
p6
(lp7
I7
asVhome
p8
(lp9
I7
asVincom
p10
(lp11
I7
asVmarket
p12
(lp13
I7
asVgroup
p14
(lp15
I7
asVjapanes
p16
(lp17
I7
asVfix
p18
(lp19
I7
asVstart
p20
(lp21
I7
asVadvis
p22
(lp23
I7
asVyamaichi
p24
(lp25
I7
asVgener
p26
(lp27
I7
asVpick
p28
(lp29
I7
asVstop
p30
(lp31
I7
asVreact
p32
(lp33
I7
asVinvest
p34
(lp35
I7
asVcould
p36
(lp37
I7
asVsecur
p38
(lp39
I7
asVchief
p40
(lp41
I7
asVltd
p42
(lp43
I7
asVmanag
p44
(lp45
I7
as.