(dp1
Vcocoa
p2
(lp3
I3
asVmalaysia
p4
(lp5
I3
asVcouncil
p6
(lp7
I3
asVacid
p8
(lp9
I3
asVacrid
p10
(lp11
I3
asVunit
p12
(lp13
I3
asVsaid
p14
(lp15
I3
asVsiew
p16
(lp17
I3
asVasia
p18
(lp19
I3
asVng
p20
(lp21
I3
asVstate
p22
(lp23
I3
asVchairman
p24
(lp25
I3
asVgrowers'
p26
(lp27
I3
asVkee
p28
(lp29
I3
asVfree
p30
(lp31
I3
asVfatti
p32
(lp33
I3
asVexpand
p34
(lp35
I3
asVhigh
p36
(lp37
I3
asVlevel
p38
(lp39
I3
asVodour
p40
(lp41
I3
asVsale
p42
(lp43
I3
asVproduc
p44
(lp45
I3
as.