(dp1
Vcanada
p2
(lp3
I2
asV830
p4
(lp5
I2
asVsaid
p6
(lp7
I2
asVdevelop
p8
(lp9
I2
asVpolysar
p10
(lp11
I2
asVdlr
p12
(lp13
I2
asVrefinanc
p14
(lp15
I2
asVcanadian
p16
(lp17
I2
asVmln
p18
(lp19
I2
asVworth
p20
(lp21
I2
asVpackag
p22
(lp23
I2
asVcorp
p24
(lp25
I2
asVltd
p26
(lp27
I2
asVreuter
p28
(lp29
I2
asVcomplet
p30
(lp31
I2
asV<
(lp32
I2
asVunit
p33
(lp34
I2
asV>
(lp35
I2
as.