(dp1
Vrespond
p2
(lp3
I3
asVcomment
p4
(lp5
I3
asVcocoa
p6
(lp7
I3
asVsuitabl
p8
(lp9
I3
asVlondon
p10
(lp11
I3
asVunit
p12
(lp13
I3
asVsaid
p14
(lp15
I3
asVwould
p16
(lp17
I3
asVasia
p18
(lp19
I3
asVstate
p20
(lp21
I3
asVlarg
p22
(lp23
I3
asVfutur
p24
(lp25
I3
asVeuropean
p26
(lp27
I3
asVexpand
p28
(lp29
I3
asVtri
p30
(lp31
I3
asVtonnag
p32
(lp33
I3
asVtrader
p34
(lp35
I3
asVmalaysian
p36
(lp37
I3
asVsale
p38
(lp39
I3
asVlong-term
p40
(lp41
I3
asVtast
p42
(lp43
I3
asVgrower
p44
(lp45
I3
as.