(dp1
Vexchang
p2
(lp3
I4
asVoffici
p4
(lp5
I4
asVwait-and-se
p6
(lp7
I4
asVsharp
p8
(lp9
I4
asVconcern
p10
(lp11
I4
asVsaid
p12
(lp13
I4
asVreuter
p14
(lp15
I3
asVestat
p16
(lp17
I3
asVtake
p18
(lp19
I4
asVmovement
p20
(lp21
I4
asVprice
p22
(lp23
I4
asVfinanc
p24
(lp25
I4
asValthough
p26
(lp27
I4
asVfall
p28
(lp29
I4
asVgrave
p30
(lp31
I4
asVtokyo
p32
(lp33
I4
asVlarger
p34
(lp35
I3
asVmalaysian
p36
(lp37
I3
asVstanc
p38
(lp39
I4
asVministri
p40
(lp41
I4
asVsenior
p42
(lp43
I4
asVstock
p44
(lp45
I4
as.