(dp1
Vdeclin
p2
(lp3
I3
asVmistaken
p4
(lp5
I3
asVcocoa
p6
(lp7
I3
asVlondon
p8
(lp9
I3
asVmarket
p10
(lp11
I3
asVsaid
p12
(lp13
I3
asVeurop
p14
(lp15
I3
asVspokesman
p16
(lp17
I3
asVboard
p18
(lp19
I3
asVtype
p20
(lp21
I3
asVsuitabl
p22
(lp23
I3
asVindonesian
p24
(lp25
I3
asVbean
p26
(lp27
I3
asVlink
p28
(lp29
I3
asVwestern
p30
(lp31
I3
asVbuyer
p32
(lp33
I3
asVpng
p34
(lp35
I3
asVanyth
p36
(lp37
I3
asVseiz
p38
(lp39
I3
asVmalaysian
p40
(lp41
I3
asVhigh-acid
p42
(lp43
I3
asVindustri
p44
(lp45
I3
as.