(dp1
Vyen
p2
(lp3
I7
asVone
p4
(lp5
I7
asVstreet
p6
(lp7
I7
asV6.3
p8
(lp9
I7
asVmarket
p10
(lp11
I7
asV5.1
p12
(lp13
I7
asVsaid
p14
(lp15
I7
asVbottom
p16
(lp17
I7
asVtwo
p18
(lp19
I7
asVpct
p20
(lp21
I7
asVstabilis
p22
(lp23
I7
asVbasic
p24
(lp25
I7
asV89th
p26
(lp27
I7
asVweek
p28
(lp29
I7
asVaround
p30
(lp31
I7
asVinvestor
p32
(lp33
I7
asVwait
p34
(lp35
I7
asVlike
p36
(lp37
I7
asVtokyo
p38
(lp39
I7
asVyield
p40
(lp41
I7
asVmanag
p42
(lp43
I7
asVbond
p44
(lp45
I7
as.