(dp1
Vindonesian
p2
(lp3
I3
asVtonn
p4
(lp5
I3
asVcocoa
p6
(lp7
I3
asVcalendar
p8
(lp9
I3
asV10,284
p10
(lp11
I3
asV1986
p12
(lp13
I3
asVend
p14
(lp15
I3
asV1980
p16
(lp17
I3
asVarea
p18
(lp19
I3
asVlargest
p20
(lp21
I3
asV31,600
p22
(lp23
I3
asVproduct
p24
(lp25
I3
asVsabah
p26
(lp27
I3
asVbean
p28
(lp29
I3
asVpartli
p30
(lp31
I3
asVoutput
p32
(lp33
I3
asVdrought
p34
(lp35
I3
asVgrow
p36
(lp37
I3
asVtripl
p38
(lp39
I3
asVproject
p40
(lp41
I3
asVthree-year
p42
(lp43
I3
asVcountri
p44
(lp45
I3
as.