(dp1
Vexchang
p2
(lp3
I4
asVclose
p4
(lp5
I4
asVyet
p6
(lp7
I4
asVcanada
p8
(lp9
I5
asVsaid
p10
(lp11
I5
aI4
asVdevelop
p12
(lp13
I5
asVreuter
p14
(lp15
I4
asVtake
p16
(lp17
I4
asV<
(lp18
I5
asV>
(lp19
I5
asVpolysar
p20
(lp21
I5
asVregard
p22
(lp23
I4
asVministri
p24
(lp25
I4
asVcorp
p26
(lp27
I5
asVplan
p28
(lp29
I4
asVfall
p30
(lp31
I4
asVmeasur
p32
(lp33
I4
asVspecif
p34
(lp35
I4
asVtokyo
p36
(lp37
I4
asVcontact
p38
(lp39
I4
asVltd
p40
(lp41
I5
asVstock
p42
(lp43
I4
as.