(dp1
Vpoint
p2
(lp3
I9
asVoutlook
p4
(lp5
I9
asVworst-ev
p6
(lp7
I9
asVmexican
p8
(lp9
I9
asVmexico
p10
(lp11
I9
asVmonth
p12
(lp13
I7
asValreadi
p14
(lp15
I7
asVmarket
p16
(lp17
I9
asVdespit
p18
(lp19
I9
asVsaid
p20
(lp21
I7
asVmonday
p22
(lp23
I9
asVreuter
p24
(lp25
I7
asVthree
p26
(lp27
I7
asVeconomi
p28
(lp29
I9
asV52,671.56
p30
(lp31
I9
asVevid
p32
(lp33
I7
asVoptimist
p34
(lp35
I9
asVstockmarket
p36
(lp37
I9
asVfall
p38
(lp39
I9
asVago
p40
(lp41
I7
asVremain
p42
(lp43
I9
asVpresid
p44
(lp45
I9
as.