(dp1
Vorigin
p2
(lp3
I9
asVpoint
p4
(lp5
I9
asVenorm
p6
(lp7
I9
asVexpect
p8
(lp9
I9
asVmarket
p10
(lp11
I9
asVindex
p12
(lp13
I9
asVprofit
p14
(lp15
I9
asVmexico
p16
(lp17
I9
asVciti
p18
(lp19
I9
asVtake
p20
(lp21
I9
asVnew
p22
(lp23
I9
asVlocal
p24
(lp25
I9
asV44,207
p26
(lp27
I9
asVweek
p28
(lp29
I9
asVmonday
p30
(lp31
I9
asVreach
p32
(lp33
I9
asVyork
p34
(lp35
I9
asVnews
p36
(lp37
I9
asVpull
p38
(lp39
I9
asVlast
p40
(lp41
I9
asVlevel
p42
(lp43
I9
asVproblem
p44
(lp45
I9
as.