(dp1
Vcocoa
p2
(lp3
I3
asVlondon
p4
(lp5
I3
asVhappi
p6
(lp7
I3
asVmarket
p8
(lp9
I3
asVdepress
p10
(lp11
I3
asVsaid
p12
(lp13
I3
asVlead
p14
(lp15
I3
asVsuggest
p16
(lp17
I3
asVplantat
p18
(lp19
I3
asVspokesman
p20
(lp21
I3
asVgener
p22
(lp23
I3
asVinferior
p24
(lp25
I3
asVproduct
p26
(lp27
I3
asVprice
p28
(lp29
I3
asVdismiss
p30
(lp31
I3
asVdirector
p32
(lp33
I3
asVworld
p34
(lp35
I3
asVtri
p36
(lp37
I3
asVprotect
p38
(lp39
I3
asVindonesia
p40
(lp41
I3
asV're
p42
(lp43
I3
asVproduc
p44
(lp45
I3
as.