(dp1
V38,000
p2
(lp3
I3
asV50,000
p4
(lp5
I3
asVmalaysia
p6
(lp7
I3
asVcost
p8
(lp9
I3
asVyear
p10
(lp11
I3
asVsaid
p12
(lp13
I3
asVwest
p14
(lp15
I3
asVyoung
p16
(lp17
I3
asV1988
p18
(lp19
I3
asVlow
p20
(lp21
I3
asVmatur
p22
(lp23
I3
asVprice
p24
(lp25
I3
asVrise
p26
(lp27
I3
asVtonn
p28
(lp29
I3
asVlast
p30
(lp31
I3
asVlonger
p32
(lp33
I3
asVcould
p34
(lp35
I3
asVindonesia
p36
(lp37
I3
asVtree
p38
(lp39
I3
asVproduc
p40
(lp41
I3
asVafrican
p42
(lp43
I3
asVtrader
p44
(lp45
I3
as.