(dp1
Vcocoa
p2
(lp3
I3
asVasian
p4
(lp5
I3
asVseek
p6
(lp7
I2
asVunit
p8
(lp9
I2
asVdespit
p10
(lp11
I3
asVsaid
p12
(lp13
I2
asVcountermeasur
p14
(lp15
I2
asVreuter
p16
(lp17
I2
asVstate
p18
(lp19
I2
asVweinberg
p20
(lp21
I2
asViran
p22
(lp23
I2
asVmeet
p24
(lp25
I2
asVask
p26
(lp27
I2
asVexpand
p28
(lp29
I3
asVescal
p30
(lp31
I2
asVconfront
p32
(lp33
I2
asVprepar
p34
(lp35
I2
asVstronger
p36
(lp37
I2
asVmilitari
p38
(lp39
I2
asVaction
p40
(lp41
I2
asVoutput
p42
(lp43
I3
asVproduc
p44
(lp45
I3
as.