(dp1
Vdepart
p2
(lp3
I7
asVhelp
p4
(lp5
I7
asVintern
p6
(lp7
I7
asVco
p8
(lp9
I7
asVstill
p10
(lp11
I7
asVmutual
p12
(lp13
I7
asVsaid
p14
(lp15
I7
asVinventori
p16
(lp17
I7
asVlighten
p18
(lp19
I7
asVstock
p20
(lp21
I7
asVlife
p22
(lp23
I7
asVinsur
p24
(lp25
I7
asVu.s.
p26
(lp27
I7
asVsunada
p28
(lp29
I7
asVyesterday
p30
(lp31
I7
asVhiromitsu
p32
(lp33
I7
asVlook
p34
(lp35
I7
asVinvest
p36
(lp37
I7
asVsale
p38
(lp39
I7
asVmeiji
p40
(lp41
I7
asVmanag
p42
(lp43
I7
asVchanc
p44
(lp45
I7
as.