(dp1
Voper
p2
(lp3
I1
asVoil
p4
(lp5
I1
asVsignificantli
p6
(lp7
I1
asVseek
p8
(lp9
I1
asVunit
p10
(lp11
I1
asVsaid
p12
(lp13
I1
asVsafeti
p14
(lp15
I1
asVgulf
p16
(lp17
I1
asVwarship
p18
(lp19
I1
asVreuter
p20
(lp21
I1
asVstate
p22
(lp23
I1
asVcountermeasur
p24
(lp25
I1
asVfutur
p26
(lp27
I1
asVescort
p28
(lp29
I1
asVweinberg
p30
(lp31
I1
asViran
p32
(lp33
I1
asVcontribut
p34
(lp35
I1
asVforc
p36
(lp37
I1
asVu.s.
p38
(lp39
I1
asVask
p40
(lp41
I1
asVescal
p42
(lp43
I1
asVconfront
p44
(lp45
I1
asVprepar
p46
(lp47
I1
asVstronger
p48
(lp49
I1
asVnavy'
p50
(lp51
I1
asVmilitari
p52
(lp53
I1
asVaction
p54
(lp55
I1
asVmeet
p56
(lp57
I1
asVtanker
p58
(lp59
I1
asVremov
p60
(lp61
I1
as.(dp1
Vcanada
p2
(lp3
I2
asV830
p4
(lp5
I2
asVsaid
p6
(lp7
I2
asVdevelop
p8
(lp9
I2
asVpolysar
p10
(lp11
I2
asVdlr
p12
(lp13
I2
asVrefinanc
p14
(lp15
I2
asVcanadian
p16
(lp17
I2
asVmln
p18
(lp19
I2
asVworth
p20
(lp21
I2
asVpackag
p22
(lp23
I2
asVcorp
p24
(lp25
I2
asVltd
p26
(lp27
I2
asVreuter
p28
(lp29
I2
asVcomplet
p30
(lp31
I2
asV<
(lp32
I2
asVunit
p33
(lp34
I2
asV>
(lp35
I2
as.(dp1
Vblown
p2
(lp3
I3
asVone
p4
(lp5
I3
asVhuge
p6
(lp7
I3
asVchristma
p8
(lp9
I3
asVgulf
p10
(lp11
I3
asVsit
p12
(lp13
I3
asVreuter
p14
(lp15
I3
asVlit
p16
(lp17
I3
asVplatform
p18
(lp19
I3
asVu.
p20
(lp21
I3
asVoffshor
p22
(lp23
I3
asVoil
p24
(lp25
I3
asVmonday
p26
(lp27
I3
asVwater
p28
(lp29
I3
asVbeacon
p30
(lp31
I3
asVrostam
p32
(lp33
I3
asVastrid
p34
(lp35
I3
asVlike
p36
(lp37
I3
asV--
p38
(lp39
I3
asVwarship
p40
(lp41
I3
asVtree
p42
(lp43
I3
asVnight
p44
(lp45
I3
asVoilfield
p46
(lp47
I3
asVdot
p48
(lp49
I3
asVusual
p50
(lp51
I3
as.(dp1
.