(dp1
Vpsycolog
p2
(lp3
I9
asVoutlook
p4
(lp5
I9
asVmexican
p6
(lp7
I9
asVbright
p8
(lp9
I9
asVsomoza
p10
(lp11
I9
asVincom
p12
(lp13
I9
asVtend
p14
(lp15
I9
asVmarket
p16
(lp17
I9
asVsaid
p18
(lp19
I9
asVdue
p20
(lp21
I9
asVeconomi
p22
(lp23
I9
asVrel
p24
(lp25
I9
asVoil
p26
(lp27
I9
asVmonday
p28
(lp29
I9
asVoptim
p30
(lp31
I9
asVeffect
p32
(lp33
I9
asVconfer
p34
(lp35
I9
asVbase
p36
(lp37
I9
asVincreas
p38
(lp39
I9
asVnews
p40
(lp41
I9
asVstabil
p42
(lp43
I9
asVthink
p44
(lp45
I9
as.