(dp1
Vtonn
p2
(lp3
I3
asVcocoa
p4
(lp5
I3
asVexport
p6
(lp7
I3
asVyear
p8
(lp9
I3
asVsell
p10
(lp11
I3
asVsaid
p12
(lp13
I3
asVend
p14
(lp15
I3
asVwest
p16
(lp17
I3
asVpct
p18
(lp19
I3
asVspokesman
p20
(lp21
I3
asVnearli
p22
(lp23
I3
asVprice
p24
(lp25
I3
asV33,000
p26
(lp27
I3
asVpng
p28
(lp29
I3
asV1986/87
p30
(lp31
I3
asVcould
p32
(lp33
I3
asV30
p34
(lp35
I3
asV50
p36
(lp37
I3
asVwhatev
p38
(lp39
I3
asVseptemb
p40
(lp41
I3
asVproduc
p42
(lp43
I3
asVtalk
p44
(lp45
I3
as.