(dp1
Vmatra
p2
(lp3
I1
asVchip
p4
(lp5
I1
asVglobal
p6
(lp7
I1
asVpd78310
p8
(lp9
I1
asVmarket
p10
(lp11
I1
asV78312
p12
(lp13
I1
asVmatr.pa
p14
(lp15
I1
asVnec
p16
(lp17
I1
asVmanufactur
p18
(lp19
I1
asVmicron
p20
(lp21
I1
asVpd
p22
(lp23
I1
asV<
(lp24
I1
asV>
(lp25
I1
asVfranc
p26
(lp27
I1
asVhr
p28
(lp29
I1
asVu.s.
p30
(lp31
I1
asVbase
p32
(lp33
I1
asVcorp
p34
(lp35
I1
asVventur
p36
(lp37
I1
asVharri
p38
(lp39
I1
asVmh
p40
(lp41
I1
asVmicrocomput
p42
(lp43
I1
as.