(dp1
Vdepart
p2
(lp3
I7
asVdecreas
p4
(lp5
I7
asVmarket
p6
(lp7
I7
asVsaid
p8
(lp9
I7
asV'
(lp10
I7
asVsecur
p11
(lp12
I7
asVsupport
p13
(lp14
I7
asVnikko
p15
(lp16
I7
asVoutflow
p17
(lp18
I7
asVnew
p19
(lp20
I7
asVgener
p21
(lp22
I7
asVstock
p23
(lp24
I7
asVokutsu
p25
(lp26
I7
asVu.s.
p27
(lp28
I7
asVassist
p29
(lp30
I7
asVnorio
p31
(lp32
I7
asVfund
p33
(lp34
I7
asVbackground
p35
(lp36
I7
asVhowev
p37
(lp38
I7
asVchang
p39
(lp40
I7
asVmanag
p41
(lp42
I7
asVbond
p43
(lp44
I7
as.