(dp1
Vqualiti
p2
(lp3
I3
asVtrade
p4
(lp5
I3
asVmalaysia
p6
(lp7
I3
asVcritic
p8
(lp9
I3
asVexport
p10
(lp11
I3
asVsaid
p12
(lp13
I3
asVtwo
p14
(lp15
I3
asVasia
p16
(lp17
I3
asVdutch
p18
(lp19
I3
asVbiggest
p20
(lp21
I3
asVpolit
p22
(lp23
I3
asVmeant
p24
(lp25
I3
asVdifficulti
p26
(lp27
I3
asVindonesian
p28
(lp29
I3
asVbean
p30
(lp31
I3
asVlink
p32
(lp33
I3
asVbuyer
p34
(lp35
I3
asVtradit
p36
(lp37
I3
asVjakarta
p38
(lp39
I3
asVindonesia
p40
(lp41
I3
asVproduc
p42
(lp43
I3
asVcommod
p44
(lp45
I3
as.