(dp1
Vblown
p2
(lp3
I3
asVone
p4
(lp5
I3
asVhuge
p6
(lp7
I3
asVchristma
p8
(lp9
I3
asVgulf
p10
(lp11
I3
asVsit
p12
(lp13
I3
asVreuter
p14
(lp15
I3
asVlit
p16
(lp17
I3
asVplatform
p18
(lp19
I3
asVu.
p20
(lp21
I3
asVoffshor
p22
(lp23
I3
asVoil
p24
(lp25
I3
asVmonday
p26
(lp27
I3
asVwater
p28
(lp29
I3
asVbeacon
p30
(lp31
I3
asVrostam
p32
(lp33
I3
asVastrid
p34
(lp35
I3
asVlike
p36
(lp37
I3
asV--
p38
(lp39
I3
asVwarship
p40
(lp41
I3
asVtree
p42
(lp43
I3
asVnight
p44
(lp45
I3
asVoilfield
p46
(lp47
I3
asVdot
p48
(lp49
I3
asVusual
p50
(lp51
I3
as.