(dp1
Vyen
p2
(lp3
I7
asVtuesday
p4
(lp5
I7
asVdollar
p6
(lp7
I7
asVrealli
p8
(lp9
I7
asVsee
p10
(lp11
I7
asVstabl
p12
(lp13
I7
asVstill
p14
(lp15
I7
asVhuge
p16
(lp17
I7
asVsaid
p18
(lp19
I7
asVjapanes
p20
(lp21
I7
asVmorn
p22
(lp23
I7
asVnew
p24
(lp25
I7
asVstock
p26
(lp27
I7
asVfirm
p28
(lp29
I7
asV142
p30
(lp31
I7
asVsold
p32
(lp33
I7
asVyork
p34
(lp35
I7
asValthough
p36
(lp37
I7
asVhold
p38
(lp39
I7
asVinvestor
p40
(lp41
I7
asVamount
p42
(lp43
I7
asVwiat
p44
(lp45
I7
as.