(dp1
Voper
p2
(lp3
I2
asVoil
p4
(lp5
I2
asVsignificantli
p6
(lp7
I2
asVsaid
p8
(lp9
I2
asVsafeti
p10
(lp11
I2
asVgulf
p12
(lp13
I2
asVwarship
p14
(lp15
I2
asVpay
p16
(lp17
I1
asVsum
p18
(lp19
I1
asVreuter
p20
(lp21
I1
asVnec
p22
(lp23
I1
asVfutur
p24
(lp25
I2
asVescort
p26
(lp27
I2
asVweinberg
p28
(lp29
I2
asVcontribut
p30
(lp31
I2
asVforc
p32
(lp33
I2
asVu.s.
p34
(lp35
I2
asVundisclos
p36
(lp37
I1
asVremov
p38
(lp39
I2
asVtechnolog
p40
(lp41
I1
asVnavy'
p42
(lp43
I2
asVtanker
p44
(lp45
I2
as.